target datalayout = "e-m:e-p270:32:32-p271:32:32-p272:64:64-i64:64-i128:128-f80:128-n8:16:32:64-S128"
target triple = "x86_64-pc-linux-gnu"

%struct._object = type { %union.anon, ptr }
%union.anon = type { i64 }
%struct.PyPickleBufferObject = type { %struct._object, %struct.Py_buffer, ptr }
%struct.Py_buffer = type { ptr, ptr, i64, i64, i32, i32, ptr, ptr, ptr, ptr, ptr }

; Function Attrs: nounwind uwtable
define internal i32 @picklebuf_traverse(ptr noundef %0, ptr noundef %1, ptr noundef %2) #0 {
  %4 = alloca i32, align 4
  %5 = alloca ptr, align 8
  %6 = alloca ptr, align 8
  %7 = alloca ptr, align 8
  %8 = alloca i32, align 4
  %9 = alloca i32, align 4
  store ptr %0, ptr %5, align 8, !tbaa !22
  store ptr %1, ptr %6, align 8, !tbaa !22
  store ptr %2, ptr %7, align 8, !tbaa !22
  br label %10

10:                                               ; preds = %3
  %11 = load ptr, ptr %5, align 8, !tbaa !22
  %12 = getelementptr inbounds nuw %struct.PyPickleBufferObject, ptr %11, i32 0, i32 1
  %13 = getelementptr inbounds nuw %struct.Py_buffer, ptr %12, i32 0, i32 1
  %14 = load ptr, ptr %13, align 8, !tbaa !23
  %15 = icmp ne ptr %14, null
  br i1 %15, label %16, label %32

16:                                               ; preds = %10
  call void @llvm.lifetime.start.p0(i64 4, ptr %8) #6
  %17 = load ptr, ptr %6, align 8, !tbaa !22
  %18 = load ptr, ptr %5, align 8, !tbaa !22
  %19 = getelementptr inbounds nuw %struct.PyPickleBufferObject, ptr %18, i32 0, i32 1
  %20 = getelementptr inbounds nuw %struct.Py_buffer, ptr %19, i32 0, i32 1
  %21 = load ptr, ptr %20, align 8, !tbaa !23
  %22 = load ptr, ptr %7, align 8, !tbaa !22
  %23 = call i32 %17(ptr noundef %21, ptr noundef %22)
  store i32 %23, ptr %8, align 4, !tbaa !32
  %24 = load i32, ptr %8, align 4, !tbaa !32
  %25 = icmp ne i32 %24, 0
  br i1 %25, label %26, label %28

26:                                               ; preds = %16
  %27 = load i32, ptr %8, align 4, !tbaa !32
  store i32 %27, ptr %4, align 4
  store i32 1, ptr %9, align 4
  br label %29

28:                                               ; preds = %16
  store i32 0, ptr %9, align 4
  br label %29

29:                                               ; preds = %28, %26
  call void @llvm.lifetime.end.p0(i64 4, ptr %8) #6
  %30 = load i32, ptr %9, align 4
  switch i32 %30, label %36 [
    i32 0, label %31
    i32 1, label %34
  ]

31:                                               ; preds = %29
  br label %32

32:                                               ; preds = %31, %10
  br label %33

33:                                               ; preds = %32
  store i32 0, ptr %4, align 4
  br label %34

34:                                               ; preds = %33, %29
  %35 = load i32, ptr %4, align 4
  ret i32 %35

36:                                               ; preds = %29
  unreachable
}